; Function Attrs: mustprogress nofree norecurse nosync nounwind willreturn memory(argmem: write) uwtable
define void @_ZN6google8protobuf3AnyC2EPNS0_5ArenaE(ptr noundef nonnull align 8 dereferenceable(56) %this, ptr noundef %arena) unnamed_addr #5 align 2 personality ptr @__gxx_personality_v0 {
invoke.cont:
  %_internal_metadata_.i.i = getelementptr inbounds i8, ptr %this, i64 8
  %0 = ptrtoint ptr %arena to i64
  store i64 %0, ptr %_internal_metadata_.i.i, align 8
  store ptr getelementptr inbounds ({ [13 x ptr] }, ptr @_ZTVN6google8protobuf3AnyE, i64 0, i32 0, i64 2), ptr %this, align 8
  %1 = getelementptr inbounds i8, ptr %this, i64 16
  store ptr @_ZN6google8protobuf8internal26fixed_address_empty_stringB5cxx11E, ptr %1, align 8
  %value_.i.i = getelementptr inbounds i8, ptr %this, i64 24
  store ptr @_ZN6google8protobuf8internal26fixed_address_empty_stringB5cxx11E, ptr %value_.i.i, align 8
  %_cached_size_.i.i = getelementptr inbounds i8, ptr %this, i64 32
  store i32 0, ptr %_cached_size_.i.i, align 8
  %_any_metadata_.i.i = getelementptr inbounds i8, ptr %this, i64 40
  store ptr %1, ptr %_any_metadata_.i.i, align 8
  %value_.i2.i = getelementptr inbounds i8, ptr %this, i64 48
  store ptr %value_.i.i, ptr %value_.i2.i, align 8
  ret void
}